target datalayout = "e-m:e-p270:32:32-p271:32:32-p272:64:64-i64:64-i128:128-f80:128-n8:16:32:64-S128"
target triple = "x86_64-pc-linux-gnu"

%struct.PaUtilBufferProcessor = type { i64, i64, i32, i32, i32, i32, i64, i32, i32, i32, i32, ptr, ptr, i32, i32, i32, i32, ptr, ptr, i64, i64, ptr, ptr, i64, ptr, ptr, i64, ptr, i64, i32, [2 x i64], [2 x ptr], i32, [2 x i64], [2 x ptr], %struct.PaUtilTriangularDitherGenerator, double, ptr, ptr }
%struct.PaUtilTriangularDitherGenerator = type { i32, i32, i32 }
%struct.PaStreamCallbackTimeInfo = type { double, double, double }

; Function Attrs: nounwind uwtable
define void @PaUtil_BeginBufferProcessing(ptr noundef %0, ptr noundef %1, i64 noundef %2) #0 {
  %4 = alloca ptr, align 8
  %5 = alloca ptr, align 8
  %6 = alloca i64, align 8
  store ptr %0, ptr %4, align 8
  store ptr %1, ptr %5, align 8
  store i64 %2, ptr %6, align 8
  %7 = load ptr, ptr %5, align 8
  %8 = load ptr, ptr %4, align 8
  %9 = getelementptr inbounds nuw %struct.PaUtilBufferProcessor, ptr %8, i32 0, i32 27
  store ptr %7, ptr %9, align 8
  %10 = load ptr, ptr %4, align 8
  %11 = getelementptr inbounds nuw %struct.PaUtilBufferProcessor, ptr %10, i32 0, i32 23
  %12 = load i64, ptr %11, align 8
  %13 = uitofp i64 %12 to double
  %14 = load ptr, ptr %4, align 8
  %15 = getelementptr inbounds nuw %struct.PaUtilBufferProcessor, ptr %14, i32 0, i32 36
  %16 = load double, ptr %15, align 8
  %17 = load ptr, ptr %4, align 8
  %18 = getelementptr inbounds nuw %struct.PaUtilBufferProcessor, ptr %17, i32 0, i32 27
  %19 = load ptr, ptr %18, align 8
  %20 = getelementptr inbounds nuw %struct.PaStreamCallbackTimeInfo, ptr %19, i32 0, i32 0
  %21 = load double, ptr %20, align 8
  %22 = fneg double %13
  %23 = call double @llvm.fmuladd.f64(double %22, double %16, double %21)
  store double %23, ptr %20, align 8
  %24 = load ptr, ptr %4, align 8
  %25 = getelementptr inbounds nuw %struct.PaUtilBufferProcessor, ptr %24, i32 0, i32 26
  %26 = load i64, ptr %25, align 8
  %27 = uitofp i64 %26 to double
  %28 = load ptr, ptr %4, align 8
  %29 = getelementptr inbounds nuw %struct.PaUtilBufferProcessor, ptr %28, i32 0, i32 36
  %30 = load double, ptr %29, align 8
  %31 = load ptr, ptr %4, align 8
  %32 = getelementptr inbounds nuw %struct.PaUtilBufferProcessor, ptr %31, i32 0, i32 27
  %33 = load ptr, ptr %32, align 8
  %34 = getelementptr inbounds nuw %struct.PaStreamCallbackTimeInfo, ptr %33, i32 0, i32 2
  %35 = load double, ptr %34, align 8
  %36 = call double @llvm.fmuladd.f64(double %27, double %30, double %35)
  store double %36, ptr %34, align 8
  %37 = load i64, ptr %6, align 8
  %38 = load ptr, ptr %4, align 8
  %39 = getelementptr inbounds nuw %struct.PaUtilBufferProcessor, ptr %38, i32 0, i32 28
  store i64 %37, ptr %39, align 8
  %40 = load ptr, ptr %4, align 8
  %41 = getelementptr inbounds nuw %struct.PaUtilBufferProcessor, ptr %40, i32 0, i32 30
  %42 = getelementptr inbounds [2 x i64], ptr %41, i64 0, i64 1
  store i64 0, ptr %42, align 8
  %43 = load ptr, ptr %4, align 8
  %44 = getelementptr inbounds nuw %struct.PaUtilBufferProcessor, ptr %43, i32 0, i32 33
  %45 = getelementptr inbounds [2 x i64], ptr %44, i64 0, i64 1
  store i64 0, ptr %45, align 8
  ret void
}