; Function Attrs: mustprogress nofree norecurse nosync nounwind willreturn memory(readwrite, inaccessiblemem: none) uwtable
define void @PaUtil_BeginBufferProcessing(ptr nocapture noundef %0, ptr noundef %1, i64 noundef %2) local_unnamed_addr #8 {
  %4 = getelementptr inbounds nuw i8, ptr %0, i64 168
  store ptr %1, ptr %4, align 8
  %5 = getelementptr inbounds nuw i8, ptr %0, i64 136
  %6 = load i64, ptr %5, align 8
  %7 = uitofp i64 %6 to double
  %8 = getelementptr inbounds nuw i8, ptr %0, i64 280
  %9 = load double, ptr %8, align 8
  %10 = load double, ptr %1, align 8
  %11 = fneg double %7
  %12 = tail call double @llvm.fmuladd.f64(double %11, double %9, double %10)
  store double %12, ptr %1, align 8
  %13 = getelementptr inbounds nuw i8, ptr %0, i64 160
  %14 = load i64, ptr %13, align 8
  %15 = uitofp i64 %14 to double
  %16 = load double, ptr %8, align 8
  %17 = load ptr, ptr %4, align 8
  %18 = getelementptr inbounds nuw i8, ptr %17, i64 16
  %19 = load double, ptr %18, align 8
  %20 = tail call double @llvm.fmuladd.f64(double %15, double %16, double %19)
  store double %20, ptr %18, align 8
  %21 = getelementptr inbounds nuw i8, ptr %0, i64 176
  store i64 %2, ptr %21, align 8
  %22 = getelementptr inbounds i8, ptr %0, i64 200
  store i64 0, ptr %22, align 8
  %23 = getelementptr inbounds i8, ptr %0, i64 240
  store i64 0, ptr %23, align 8
  ret void
}